; Function Attrs: mustprogress uwtable
define dso_local void @_ZNK17cmOutputConverter34ConvertDirectorySeparatorsForShellB5cxx11ESt17basic_string_viewIcSt11char_traitsIcEE(ptr dead_on_unwind noalias writable sret(%"class.std::__cxx11::basic_string") align 8 %0, ptr noundef nonnull align 8 dereferenceable(108) %1, i64 %2, ptr %3) local_unnamed_addr #3 align 2 personality ptr @__gxx_personality_v0 {
  %5 = alloca %"struct.std::__cxx11::basic_string<char>::__sv_wrapper", align 8
  %6 = alloca %"class.std::allocator", align 1
  call void @_ZNSaIcEC1Ev(ptr noundef nonnull align 1 dereferenceable(1) %6) #18
  call void @llvm.lifetime.start.p0(i64 16, ptr nonnull %5)
  %7 = call { i64, ptr } @_ZNSt7__cxx1112basic_stringIcSt11char_traitsIcESaIcEE17_S_to_string_viewESt17basic_string_viewIcS2_E(i64 %2, ptr %3) #18
  %8 = extractvalue { i64, ptr } %7, 0
  %9 = extractvalue { i64, ptr } %7, 1
  call void @_ZNSt7__cxx1112basic_stringIcSt11char_traitsIcESaIcEE12__sv_wrapperC1ESt17basic_string_viewIcS2_E(ptr noundef nonnull align 8 dereferenceable(16) %5, i64 %8, ptr %9) #18
  %10 = load i64, ptr %5, align 8
  %11 = getelementptr inbounds i8, ptr %5, i64 8
  %12 = load ptr, ptr %11, align 8
  invoke void @_ZNSt7__cxx1112basic_stringIcSt11char_traitsIcESaIcEEC2ENS4_12__sv_wrapperERKS3_(ptr noundef nonnull align 8 dereferenceable(32) %0, i64 %10, ptr %12, ptr noundef nonnull align 1 dereferenceable(1) %6)
          to label %13 unwind label %38

13:                                               ; preds = %4
  call void @llvm.lifetime.end.p0(i64 16, ptr nonnull %5)
  call void @_ZNSaIcED1Ev(ptr noundef nonnull align 1 dereferenceable(1) %6) #18
  %14 = getelementptr inbounds i8, ptr %1, i64 8
  %15 = invoke noundef ptr @_ZNK15cmStateSnapshot8GetStateEv(ptr noundef nonnull align 8 dereferenceable(24) %14)
          to label %_ZNK17cmOutputConverter8GetStateEv.exit unwind label %40

_ZNK17cmOutputConverter8GetStateEv.exit:          ; preds = %13
  %16 = invoke noundef zeroext i1 @_ZNK7cmState12UseMSYSShellEv(ptr noundef nonnull align 8 dereferenceable(705) %15)
          to label %17 unwind label %40

17:                                               ; preds = %_ZNK17cmOutputConverter8GetStateEv.exit
  br i1 %16, label %18, label %42

18:                                               ; preds = %17
  %19 = getelementptr inbounds i8, ptr %1, i64 32
  %20 = load i8, ptr %19, align 8
  %21 = and i8 %20, 1
  %.not = icmp eq i8 %21, 0
  br i1 %.not, label %22, label %42

22:                                               ; preds = %18
  %23 = call noundef i64 @_ZNKSt7__cxx1112basic_stringIcSt11char_traitsIcESaIcEE4sizeEv(ptr noundef nonnull align 8 dereferenceable(32) %0) #18
  %24 = icmp ugt i64 %23, 2
  br i1 %24, label %25, label %42

25:                                               ; preds = %22
  %26 = invoke noundef nonnull align 1 dereferenceable(1) ptr @_ZNSt7__cxx1112basic_stringIcSt11char_traitsIcESaIcEEixEm(ptr noundef nonnull align 8 dereferenceable(32) %0, i64 noundef 1)
          to label %27 unwind label %40

27:                                               ; preds = %25
  %28 = load i8, ptr %26, align 1
  %29 = icmp eq i8 %28, 58
  br i1 %29, label %30, label %42

30:                                               ; preds = %27
  %31 = invoke noundef nonnull align 1 dereferenceable(1) ptr @_ZNSt7__cxx1112basic_stringIcSt11char_traitsIcESaIcEEixEm(ptr noundef nonnull align 8 dereferenceable(32) %0, i64 noundef 0)
          to label %32 unwind label %40

32:                                               ; preds = %30
  %33 = load i8, ptr %31, align 1
  %34 = invoke noundef nonnull align 1 dereferenceable(1) ptr @_ZNSt7__cxx1112basic_stringIcSt11char_traitsIcESaIcEEixEm(ptr noundef nonnull align 8 dereferenceable(32) %0, i64 noundef 1)
          to label %35 unwind label %40

35:                                               ; preds = %32
  store i8 %33, ptr %34, align 1
  %36 = invoke noundef nonnull align 1 dereferenceable(1) ptr @_ZNSt7__cxx1112basic_stringIcSt11char_traitsIcESaIcEEixEm(ptr noundef nonnull align 8 dereferenceable(32) %0, i64 noundef 0)
          to label %37 unwind label %40

37:                                               ; preds = %35
  store i8 47, ptr %36, align 1
  br label %42

38:                                               ; preds = %4
  %39 = landingpad { ptr, i32 }
          cleanup
  call void @_ZNSaIcED1Ev(ptr noundef nonnull align 1 dereferenceable(1) %6) #18
  br label %54

40:                                               ; preds = %42, %13, %_ZNK17cmOutputConverter8GetStateEv.exit6, %35, %32, %30, %25, %_ZNK17cmOutputConverter8GetStateEv.exit
  %41 = landingpad { ptr, i32 }
          cleanup
  call void @_ZNSt7__cxx1112basic_stringIcSt11char_traitsIcESaIcEED1Ev(ptr noundef nonnull align 8 dereferenceable(32) %0) #18
  br label %54

42:                                               ; preds = %22, %27, %37, %18, %17
  %43 = invoke noundef ptr @_ZNK15cmStateSnapshot8GetStateEv(ptr noundef nonnull align 8 dereferenceable(24) %14)
          to label %_ZNK17cmOutputConverter8GetStateEv.exit6 unwind label %40

_ZNK17cmOutputConverter8GetStateEv.exit6:         ; preds = %42
  %44 = invoke noundef zeroext i1 @_ZNK7cmState15UseWindowsShellEv(ptr noundef nonnull align 8 dereferenceable(705) %43)
          to label %45 unwind label %40

45:                                               ; preds = %_ZNK17cmOutputConverter8GetStateEv.exit6
  br i1 %44, label %46, label %_ZSt7replaceIN9__gnu_cxx17__normal_iteratorIPcNSt7__cxx1112basic_stringIcSt11char_traitsIcESaIcEEEEEcEvT_SA_RKT0_SD_.exit

46:                                               ; preds = %45
  %47 = call ptr @_ZNSt7__cxx1112basic_stringIcSt11char_traitsIcESaIcEE5beginEv(ptr noundef nonnull align 8 dereferenceable(32) %0) #18
  %48 = call ptr @_ZNSt7__cxx1112basic_stringIcSt11char_traitsIcESaIcEE3endEv(ptr noundef nonnull align 8 dereferenceable(32) %0) #18
  %.not6.i = icmp eq ptr %47, %48
  br i1 %.not6.i, label %_ZSt7replaceIN9__gnu_cxx17__normal_iteratorIPcNSt7__cxx1112basic_stringIcSt11char_traitsIcESaIcEEEEEcEvT_SA_RKT0_SD_.exit, label %.lr.ph.i

.lr.ph.i:                                         ; preds = %46, %52
  %.sroa.02.07.i = phi ptr [ %53, %52 ], [ %47, %46 ]
  %49 = load i8, ptr %.sroa.02.07.i, align 1
  %50 = icmp eq i8 %49, 47
  br i1 %50, label %51, label %52

51:                                               ; preds = %.lr.ph.i
  store i8 92, ptr %.sroa.02.07.i, align 1
  br label %52

52:                                               ; preds = %51, %.lr.ph.i
  %53 = getelementptr inbounds i8, ptr %.sroa.02.07.i, i64 1
  %.not.i = icmp eq ptr %53, %48
  br i1 %.not.i, label %_ZSt7replaceIN9__gnu_cxx17__normal_iteratorIPcNSt7__cxx1112basic_stringIcSt11char_traitsIcESaIcEEEEEcEvT_SA_RKT0_SD_.exit, label %.lr.ph.i, !llvm.loop !8

_ZSt7replaceIN9__gnu_cxx17__normal_iteratorIPcNSt7__cxx1112basic_stringIcSt11char_traitsIcESaIcEEEEEcEvT_SA_RKT0_SD_.exit: ; preds = %52, %46, %45
  ret void

54:                                               ; preds = %40, %38
  %.pn = phi { ptr, i32 } [ %41, %40 ], [ %39, %38 ]
  resume { ptr, i32 } %.pn
}